; Function Attrs: nounwind uwtable
define ptr @l_List_filterMapTR_go___at_Std_Tactic_BVDecide_LRAT_Internal_DefaultFormula_toList___spec__1(ptr readnone captures(none) %0, ptr noundef %1, ptr noundef %2) local_unnamed_addr #1 {
  br label %lean_dec.exit.outer

lean_dec.exit.outer:                              ; preds = %lean_dec.exit26, %3
  %.020.ph = phi ptr [ %81, %lean_dec.exit26 ], [ %2, %3 ]
  %.0.ph = phi ptr [ %33, %lean_dec.exit26 ], [ %1, %3 ]
  br label %lean_dec.exit

lean_dec.exit:                                    ; preds = %lean_dec.exit.backedge, %lean_dec.exit.outer
  %.0 = phi ptr [ %.0.ph, %lean_dec.exit.outer ], [ %33, %lean_dec.exit.backedge ]
  %4 = ptrtoint ptr %.0 to i64
  %5 = and i64 %4, 1
  %.not.i31 = icmp eq i64 %5, 0
  br i1 %.not.i31, label %9, label %6

6:                                                ; preds = %lean_dec.exit
  %7 = lshr i64 %4, 1
  %8 = trunc i64 %7 to i32
  br label %lean_obj_tag.exit

9:                                                ; preds = %lean_dec.exit
  %10 = getelementptr i8, ptr %.0, i64 4
  %.val.i = load i32, ptr %10, align 4
  %11 = lshr i32 %.val.i, 24
  br label %lean_obj_tag.exit

lean_obj_tag.exit:                                ; preds = %6, %9
  %.0.i = phi i32 [ %8, %6 ], [ %11, %9 ]
  %12 = icmp eq i32 %.0.i, 0
  br i1 %12, label %13, label %15

13:                                               ; preds = %lean_obj_tag.exit
  %14 = tail call ptr @lean_array_to_list(ptr noundef %.020.ph) #5
  ret ptr %14

15:                                               ; preds = %lean_obj_tag.exit
  %16 = getelementptr inbounds nuw i8, ptr %.0, i64 8
  %17 = load ptr, ptr %16, align 8, !tbaa !9
  %18 = ptrtoint ptr %17 to i64
  %19 = and i64 %18, 1
  %.not = icmp eq i64 %19, 0
  br i1 %.not, label %20, label %lean_inc.exit

20:                                               ; preds = %15
  %.val.i32 = load i32, ptr %17, align 4, !tbaa !4
  %21 = icmp sgt i32 %.val.i32, 0
  br i1 %21, label %22, label %24, !prof !11

22:                                               ; preds = %20
  %23 = add nuw i32 %.val.i32, 1
  store i32 %23, ptr %17, align 4, !tbaa !4
  br label %28

24:                                               ; preds = %20
  %.not.i33 = icmp eq i32 %.val.i32, 0
  br i1 %.not.i33, label %28, label %25

25:                                               ; preds = %24
  tail call void @lean_inc_ref_cold(ptr noundef nonnull %17) #5
  br label %28

lean_inc.exit:                                    ; preds = %15
  %26 = lshr i64 %18, 1
  %27 = trunc i64 %26 to i32
  br label %lean_obj_tag.exit37

28:                                               ; preds = %25, %24, %22
  %29 = getelementptr i8, ptr %17, i64 4
  %.val.i36 = load i32, ptr %29, align 4
  %30 = lshr i32 %.val.i36, 24
  br label %lean_obj_tag.exit37

lean_obj_tag.exit37:                              ; preds = %lean_inc.exit, %28
  %.0.i35 = phi i32 [ %27, %lean_inc.exit ], [ %30, %28 ]
  %31 = icmp eq i32 %.0.i35, 0
  %32 = getelementptr inbounds nuw i8, ptr %.0, i64 16
  %33 = load ptr, ptr %32, align 8, !tbaa !9
  %34 = ptrtoint ptr %33 to i64
  %35 = and i64 %34, 1
  %.not51 = icmp eq i64 %35, 0
  br i1 %31, label %36, label %50

36:                                               ; preds = %lean_obj_tag.exit37
  br i1 %.not51, label %37, label %lean_inc.exit22

37:                                               ; preds = %36
  %.val.i38 = load i32, ptr %33, align 4, !tbaa !4
  %38 = icmp sgt i32 %.val.i38, 0
  br i1 %38, label %39, label %41, !prof !11

39:                                               ; preds = %37
  %40 = add nuw i32 %.val.i38, 1
  store i32 %40, ptr %33, align 4, !tbaa !4
  br label %lean_inc.exit22

41:                                               ; preds = %37
  %.not.i39 = icmp eq i32 %.val.i38, 0
  br i1 %.not.i39, label %lean_inc.exit22, label %42

42:                                               ; preds = %41
  tail call void @lean_inc_ref_cold(ptr noundef nonnull %33) #5
  br label %lean_inc.exit22

lean_inc.exit22:                                  ; preds = %42, %41, %39, %36
  br i1 %.not.i31, label %43, label %lean_dec.exit.backedge

lean_dec.exit.backedge:                           ; preds = %lean_inc.exit22, %46, %48, %49
  br label %lean_dec.exit

43:                                               ; preds = %lean_inc.exit22
  %44 = load i32, ptr %.0, align 4, !tbaa !4
  %45 = icmp sgt i32 %44, 1
  br i1 %45, label %46, label %48, !prof !11

46:                                               ; preds = %43
  %47 = add nsw i32 %44, -1
  store i32 %47, ptr %.0, align 4, !tbaa !4
  br label %lean_dec.exit.backedge

48:                                               ; preds = %43
  %.not.i29 = icmp eq i32 %44, 0
  br i1 %.not.i29, label %lean_dec.exit.backedge, label %49

49:                                               ; preds = %48
  tail call void @lean_dec_ref_cold(ptr noundef nonnull %.0) #5
  br label %lean_dec.exit.backedge

50:                                               ; preds = %lean_obj_tag.exit37
  br i1 %.not51, label %51, label %lean_inc.exit23

51:                                               ; preds = %50
  %.val.i41 = load i32, ptr %33, align 4, !tbaa !4
  %52 = icmp sgt i32 %.val.i41, 0
  br i1 %52, label %53, label %55, !prof !11

53:                                               ; preds = %51
  %54 = add nuw i32 %.val.i41, 1
  store i32 %54, ptr %33, align 4, !tbaa !4
  br label %lean_inc.exit23

55:                                               ; preds = %51
  %.not.i42 = icmp eq i32 %.val.i41, 0
  br i1 %.not.i42, label %lean_inc.exit23, label %56

56:                                               ; preds = %55
  tail call void @lean_inc_ref_cold(ptr noundef nonnull %33) #5
  br label %lean_inc.exit23

lean_inc.exit23:                                  ; preds = %56, %55, %53, %50
  br i1 %.not.i31, label %57, label %lean_dec.exit25

57:                                               ; preds = %lean_inc.exit23
  %58 = load i32, ptr %.0, align 4, !tbaa !4
  %59 = icmp sgt i32 %58, 1
  br i1 %59, label %60, label %62, !prof !11

60:                                               ; preds = %57
  %61 = add nsw i32 %58, -1
  store i32 %61, ptr %.0, align 4, !tbaa !4
  br label %lean_dec.exit25

62:                                               ; preds = %57
  %.not.i27 = icmp eq i32 %58, 0
  br i1 %.not.i27, label %lean_dec.exit25, label %63

63:                                               ; preds = %62
  tail call void @lean_dec_ref_cold(ptr noundef nonnull %.0) #5
  br label %lean_dec.exit25

lean_dec.exit25:                                  ; preds = %63, %62, %60, %lean_inc.exit23
  %64 = getelementptr inbounds nuw i8, ptr %17, i64 8
  %65 = load ptr, ptr %64, align 8, !tbaa !9
  %66 = ptrtoint ptr %65 to i64
  %67 = and i64 %66, 1
  %.not50 = icmp eq i64 %67, 0
  br i1 %.not50, label %68, label %lean_inc.exit24

68:                                               ; preds = %lean_dec.exit25
  %.val.i44 = load i32, ptr %65, align 4, !tbaa !4
  %69 = icmp sgt i32 %.val.i44, 0
  br i1 %69, label %70, label %72, !prof !11

70:                                               ; preds = %68
  %71 = add nuw i32 %.val.i44, 1
  store i32 %71, ptr %65, align 4, !tbaa !4
  br label %lean_inc.exit24

72:                                               ; preds = %68
  %.not.i45 = icmp eq i32 %.val.i44, 0
  br i1 %.not.i45, label %lean_inc.exit24, label %73

73:                                               ; preds = %72
  tail call void @lean_inc_ref_cold(ptr noundef nonnull %65) #5
  br label %lean_inc.exit24

lean_inc.exit24:                                  ; preds = %73, %72, %70, %lean_dec.exit25
  br i1 %.not, label %74, label %lean_dec.exit26

74:                                               ; preds = %lean_inc.exit24
  %75 = load i32, ptr %17, align 4, !tbaa !4
  %76 = icmp sgt i32 %75, 1
  br i1 %76, label %77, label %79, !prof !11

77:                                               ; preds = %74
  %78 = add nsw i32 %75, -1
  store i32 %78, ptr %17, align 4, !tbaa !4
  br label %lean_dec.exit26

79:                                               ; preds = %74
  %.not.i = icmp eq i32 %75, 0
  br i1 %.not.i, label %lean_dec.exit26, label %80

80:                                               ; preds = %79
  tail call void @lean_dec_ref_cold(ptr noundef nonnull %17) #5
  br label %lean_dec.exit26

lean_dec.exit26:                                  ; preds = %80, %79, %77, %lean_inc.exit24
  %81 = tail call ptr @lean_array_push(ptr noundef %.020.ph, ptr noundef %65) #5
  br label %lean_dec.exit.outer
}